; Function Attrs: mustprogress noreturn uwtable
define hidden void @_ZN4cvc58internal6theory5arith2nl3icp9ICPSolver5checkEv(ptr noundef nonnull readnone align 8 captures(none) dereferenceable(16) %0) local_unnamed_addr #3 align 2 personality ptr @__gxx_personality_v0 {
  %2 = alloca %"class.cvc5::internal::FatalStream", align 1
  call void @llvm.lifetime.start.p0(i64 1, ptr nonnull %2) #13
  call void @_ZN4cvc58internal11FatalStreamC1EPKcS3_i(ptr noundef nonnull align 1 dereferenceable(1) %2, ptr noundef nonnull @__PRETTY_FUNCTION__._ZN4cvc58internal6theory5arith2nl3icp9ICPSolver5checkEv, ptr noundef nonnull @.str, i32 noundef 380)
  %3 = invoke noundef nonnull align 8 dereferenceable(8) ptr @_ZN4cvc58internal11FatalStream6streamEv(ptr noundef nonnull align 1 dereferenceable(1) %2)
          to label %4 unwind label %8

4:                                                ; preds = %1
  %5 = invoke noundef nonnull align 8 dereferenceable(8) ptr @_ZSt16__ostream_insertIcSt11char_traitsIcEERSt13basic_ostreamIT_T0_ES6_PKS3_l(ptr noundef nonnull align 8 dereferenceable(8) %3, ptr noundef nonnull @.str.1, i64 noundef 31)
          to label %_ZStlsISt11char_traitsIcEERSt13basic_ostreamIcT_ES5_PKc.exit unwind label %8

_ZStlsISt11char_traitsIcEERSt13basic_ostreamIcT_ES5_PKc.exit: ; preds = %4
  %6 = invoke noundef nonnull align 8 dereferenceable(8) ptr @_ZStlsISt11char_traitsIcEERSt13basic_ostreamIcT_ES5_PKc(ptr noundef nonnull align 8 dereferenceable(8) %3, ptr noundef nonnull @.str.2)
          to label %7 unwind label %8

7:                                                ; preds = %_ZStlsISt11char_traitsIcEERSt13basic_ostreamIcT_ES5_PKc.exit
  call void @_ZN4cvc58internal11FatalStreamD1Ev(ptr noundef nonnull align 1 dereferenceable(1) %2) #14
  unreachable

8:                                                ; preds = %4, %_ZStlsISt11char_traitsIcEERSt13basic_ostreamIcT_ES5_PKc.exit, %1
  %9 = landingpad { ptr, i32 }
          cleanup
  call void @_ZN4cvc58internal11FatalStreamD1Ev(ptr noundef nonnull align 1 dereferenceable(1) %2) #14
  unreachable
}